; Function Attrs: nounwind uwtable
define void @Gia_ManTreeFree(ptr noundef captures(none) %0) local_unnamed_addr #0 {
  %2 = getelementptr i8, ptr %0, i64 272
  br label %3

3:                                                ; preds = %1, %8
  %indvars.iv = phi i64 [ 0, %1 ], [ %indvars.iv.next, %8 ]
  %4 = shl nuw nsw i64 %indvars.iv, 4
  %5 = getelementptr i8, ptr %2, i64 %4
  %6 = load ptr, ptr %5, align 8, !tbaa !21
  %.not16 = icmp eq ptr %6, null
  br i1 %.not16, label %8, label %7

7:                                                ; preds = %3
  tail call void @free(ptr noundef nonnull %6) #24
  store ptr null, ptr %5, align 8, !tbaa !21
  br label %8

8:                                                ; preds = %7, %3
  %indvars.iv.next = add nuw nsw i64 %indvars.iv, 1
  %exitcond.not = icmp eq i64 %indvars.iv.next, 16
  br i1 %exitcond.not, label %9, label %3, !llvm.loop !26

9:                                                ; preds = %8
  %10 = getelementptr inbounds nuw i8, ptr %0, i64 520
  %11 = load ptr, ptr %10, align 8, !tbaa !12
  %.not = icmp eq ptr %11, null
  br i1 %.not, label %13, label %12

12:                                               ; preds = %9
  tail call void @free(ptr noundef nonnull %11) #24
  br label %13

13:                                               ; preds = %9, %12
  tail call void @free(ptr noundef nonnull %0) #24
  ret void
}